; Function Attrs: mustprogress uwtable
define internal void @"_ZNK3$_99to_stringB5cxx11E6insn_t"(ptr dead_on_unwind noalias writable sret(%"class.std::__cxx11::basic_string") align 8 %0, ptr nocapture nonnull readnone align 8 %1, i64 %2) unnamed_addr #1 align 2 personality ptr @__gxx_personality_v0 {
  %4 = alloca %"class.std::__cxx11::basic_string", align 8
  %5 = lshr i64 %2, 4
  %6 = and i64 %5, 15
  %switch.tableidx = add nsw i64 %6, -4
  %7 = icmp ult i64 %switch.tableidx, 12
  br i1 %7, label %switch.lookup, label %_ZN6insn_t21zcmp_stack_adjustmentEi.exit

switch.lookup:                                    ; preds = %3
  %switch.gep = getelementptr inbounds [12 x i64], ptr @"switch.table._ZNK4$_119to_stringB5cxx11E6insn_t", i64 0, i64 %switch.tableidx
  %switch.load = load i64, ptr %switch.gep, align 8
  br label %_ZN6insn_t21zcmp_stack_adjustmentEi.exit

_ZN6insn_t21zcmp_stack_adjustmentEi.exit:         ; preds = %switch.lookup, %3
  %.6.i = phi i64 [ 0, %3 ], [ %switch.load, %switch.lookup ]
  %8 = shl i64 %2, 2
  %9 = and i64 %8, 48
  %10 = add nuw nsw i64 %.6.i, %9
  call void @_ZNSt7__cxx119to_stringEm(ptr dead_on_unwind nonnull writable sret(%"class.std::__cxx11::basic_string") align 8 %4, i64 noundef %10)
  invoke void @_ZStplIcSt11char_traitsIcESaIcEENSt7__cxx1112basic_stringIT_T0_T1_EES5_OS8_(ptr dead_on_unwind writable sret(%"class.std::__cxx11::basic_string") align 8 %0, i8 noundef signext 45, ptr noundef nonnull align 8 dereferenceable(32) %4)
          to label %11 unwind label %18

11:                                               ; preds = %_ZN6insn_t21zcmp_stack_adjustmentEi.exit
  %12 = load ptr, ptr %4, align 8
  %13 = getelementptr inbounds i8, ptr %4, i64 16
  %14 = icmp eq ptr %12, %13
  br i1 %14, label %_ZNKSt7__cxx1112basic_stringIcSt11char_traitsIcESaIcEE11_M_is_localEv.exit.thread.i.i, label %_ZNKSt7__cxx1112basic_stringIcSt11char_traitsIcESaIcEE11_M_is_localEv.exit.i.i

_ZNKSt7__cxx1112basic_stringIcSt11char_traitsIcESaIcEE11_M_is_localEv.exit.thread.i.i: ; preds = %11
  %15 = getelementptr inbounds i8, ptr %4, i64 8
  %16 = load i64, ptr %15, align 8
  %17 = icmp ult i64 %16, 16
  call void @llvm.assume(i1 %17)
  br label %_ZNSt7__cxx1112basic_stringIcSt11char_traitsIcESaIcEED2Ev.exit

_ZNKSt7__cxx1112basic_stringIcSt11char_traitsIcESaIcEE11_M_is_localEv.exit.i.i: ; preds = %11
  call void @_ZdlPv(ptr noundef %12) #22
  br label %_ZNSt7__cxx1112basic_stringIcSt11char_traitsIcESaIcEED2Ev.exit

_ZNSt7__cxx1112basic_stringIcSt11char_traitsIcESaIcEED2Ev.exit: ; preds = %_ZNKSt7__cxx1112basic_stringIcSt11char_traitsIcESaIcEE11_M_is_localEv.exit.thread.i.i, %_ZNKSt7__cxx1112basic_stringIcSt11char_traitsIcESaIcEE11_M_is_localEv.exit.i.i
  call void @_ZNSaIcED2Ev(ptr noundef nonnull align 1 dereferenceable(1) %4) #19
  ret void

18:                                               ; preds = %_ZN6insn_t21zcmp_stack_adjustmentEi.exit
  %19 = landingpad { ptr, i32 }
          cleanup
  call void @_ZNSt7__cxx1112basic_stringIcSt11char_traitsIcESaIcEED2Ev(ptr noundef nonnull align 8 dereferenceable(32) %4) #19
  resume { ptr, i32 } %19
}